; ModuleID = '22/696.c'
source_filename = "22/696.c"
target datalayout = "e-m:e-p270:32:32-p271:32:32-p272:64:64-i64:64-f80:128-n8:16:32:64-S128"
target triple = "x86_64-pc-linux-gnu"

@.str = private unnamed_addr constant [3 x i8] c"%d\00", align 1
@.str.1 = private unnamed_addr constant [3 x i8] c"No\00", align 1

; Function Attrs: noinline nounwind uwtable
define dso_local void @main() #0 {
  %1 = alloca [300 x i32], align 16
  %2 = alloca i32, align 4
  %3 = alloca i32, align 4
  %4 = alloca i32, align 4
  %5 = alloca i8, align 1
  store i32 -1, i32* %2, align 4
  store i32 -1, i32* %3, align 4
  store i32 0, i32* %4, align 4
  br label %6

6:                                                ; preds = %51, %0
  %7 = load i32, i32* %4, align 4
  %8 = icmp sle i32 %7, 300
  br i1 %8, label %9, label %52

9:                                                ; preds = %6
  %10 = load i32, i32* %4, align 4
  %11 = sext i32 %10 to i64
  %12 = getelementptr inbounds [300 x i32], [300 x i32]* %1, i64 0, i64 %11
  %13 = call i32 (i8*, ...) @__isoc99_scanf(i8* getelementptr inbounds ([3 x i8], [3 x i8]* @.str, i64 0, i64 0), i32* %12)
  %14 = load i32, i32* %4, align 4
  %15 = sext i32 %14 to i64
  %16 = getelementptr inbounds [300 x i32], [300 x i32]* %1, i64 0, i64 %15
  %17 = load i32, i32* %16, align 4
  %18 = load i32, i32* %2, align 4
  %19 = icmp sgt i32 %17, %18
  br i1 %19, label %20, label %26

20:                                               ; preds = %9
  %21 = load i32, i32* %2, align 4
  store i32 %21, i32* %3, align 4
  %22 = load i32, i32* %4, align 4
  %23 = sext i32 %22 to i64
  %24 = getelementptr inbounds [300 x i32], [300 x i32]* %1, i64 0, i64 %23
  %25 = load i32, i32* %24, align 4
  store i32 %25, i32* %2, align 4
  br label %26

26:                                               ; preds = %20, %9
  %27 = load i32, i32* %4, align 4
  %28 = sext i32 %27 to i64
  %29 = getelementptr inbounds [300 x i32], [300 x i32]* %1, i64 0, i64 %28
  %30 = load i32, i32* %29, align 4
  %31 = load i32, i32* %3, align 4
  %32 = icmp sgt i32 %30, %31
  br i1 %32, label %33, label %45

33:                                               ; preds = %26
  %34 = load i32, i32* %4, align 4
  %35 = sext i32 %34 to i64
  %36 = getelementptr inbounds [300 x i32], [300 x i32]* %1, i64 0, i64 %35
  %37 = load i32, i32* %36, align 4
  %38 = load i32, i32* %2, align 4
  %39 = icmp slt i32 %37, %38
  br i1 %39, label %40, label %45

40:                                               ; preds = %33
  %41 = load i32, i32* %4, align 4
  %42 = sext i32 %41 to i64
  %43 = getelementptr inbounds [300 x i32], [300 x i32]* %1, i64 0, i64 %42
  %44 = load i32, i32* %43, align 4
  store i32 %44, i32* %3, align 4
  br label %45

45:                                               ; preds = %40, %33, %26
  %46 = load i32, i32* %4, align 4
  %47 = add nsw i32 %46, 1
  store i32 %47, i32* %4, align 4
  %48 = call i32 @getchar()
  %49 = icmp ne i32 %48, 44
  br i1 %49, label %50, label %51

50:                                               ; preds = %45
  br label %52

51:                                               ; preds = %45
  br label %6

52:                                               ; preds = %50, %6
  %53 = load i32, i32* %3, align 4
  %54 = icmp eq i32 %53, -1
  br i1 %54, label %55, label %57

55:                                               ; preds = %52
  %56 = call i32 (i8*, ...) @printf(i8* getelementptr inbounds ([3 x i8], [3 x i8]* @.str.1, i64 0, i64 0))
  br label %60

57:                                               ; preds = %52
  %58 = load i32, i32* %3, align 4
  %59 = call i32 (i8*, ...) @printf(i8* getelementptr inbounds ([3 x i8], [3 x i8]* @.str, i64 0, i64 0), i32 %58)
  br label %60

60:                                               ; preds = %57, %55
  ret void
}

declare dso_local i32 @__isoc99_scanf(i8*, ...) #1

declare dso_local i32 @getchar() #1

declare dso_local i32 @printf(i8*, ...) #1


!llvm.module.flags = !{!0}
!llvm.ident = !{!1}

!0 = !{i32 1, !"wchar_size", i32 4}
!1 = !{!"clang version 10.0.0-4ubuntu1 "}
